target datalayout = "e-m:e-p270:32:32-p271:32:32-p272:64:64-i64:64-i128:128-f80:128-n8:16:32:64-S128"
target triple = "x86_64-pc-linux-gnu"

%class.btVector3 = type { [4 x float] }

; Function Attrs: inlinehint mustprogress nounwind uwtable
define linkonce_odr dso_local void @_ZN9btVector38setValueERKfS1_S1_(ptr noundef nonnull align 4 dereferenceable(16) %0, ptr noundef nonnull align 4 dereferenceable(4) %1, ptr noundef nonnull align 4 dereferenceable(4) %2, ptr noundef nonnull align 4 dereferenceable(4) %3) #7 comdat align 2 {
  %5 = alloca ptr, align 8
  %6 = alloca ptr, align 8
  %7 = alloca ptr, align 8
  %8 = alloca ptr, align 8
  store ptr %0, ptr %5, align 8, !tbaa !149
  store ptr %1, ptr %6, align 8, !tbaa !173
  store ptr %2, ptr %7, align 8, !tbaa !173
  store ptr %3, ptr %8, align 8, !tbaa !173
  %9 = load ptr, ptr %5, align 8
  %10 = load ptr, ptr %6, align 8, !tbaa !173
  %11 = load float, ptr %10, align 4, !tbaa !28
  %12 = getelementptr inbounds nuw %class.btVector3, ptr %9, i32 0, i32 0
  %13 = getelementptr inbounds [4 x float], ptr %12, i64 0, i64 0
  store float %11, ptr %13, align 4, !tbaa !28
  %14 = load ptr, ptr %7, align 8, !tbaa !173
  %15 = load float, ptr %14, align 4, !tbaa !28
  %16 = getelementptr inbounds nuw %class.btVector3, ptr %9, i32 0, i32 0
  %17 = getelementptr inbounds [4 x float], ptr %16, i64 0, i64 1
  store float %15, ptr %17, align 4, !tbaa !28
  %18 = load ptr, ptr %8, align 8, !tbaa !173
  %19 = load float, ptr %18, align 4, !tbaa !28
  %20 = getelementptr inbounds nuw %class.btVector3, ptr %9, i32 0, i32 0
  %21 = getelementptr inbounds [4 x float], ptr %20, i64 0, i64 2
  store float %19, ptr %21, align 4, !tbaa !28
  %22 = getelementptr inbounds nuw %class.btVector3, ptr %9, i32 0, i32 0
  %23 = getelementptr inbounds [4 x float], ptr %22, i64 0, i64 3
  store float 0.000000e+00, ptr %23, align 4, !tbaa !28
  ret void
}

; Function Attrs: inlinehint mustprogress nounwind uwtable
define linkonce_odr dso_local noundef ptr @_ZNK9btVector3cvPKfEv(ptr noundef nonnull align 4 dereferenceable(16) %0) #7 comdat align 2 {
  %2 = alloca ptr, align 8
  store ptr %0, ptr %2, align 8, !tbaa !149
  %3 = load ptr, ptr %2, align 8
  %4 = getelementptr inbounds nuw %class.btVector3, ptr %3, i32 0, i32 0
  %5 = getelementptr inbounds [4 x float], ptr %4, i64 0, i64 0
  ret ptr %5
}

; Function Attrs: mustprogress uwtable
define dso_local void @_ZN30btReducedDeformableBodyHelpers21calculateLocalInertiaER9btVector3fRKS0_S3_(ptr noundef nonnull align 4 dereferenceable(16) %0, float noundef %1, ptr noundef nonnull align 4 dereferenceable(16) %2, ptr noundef nonnull align 4 dereferenceable(16) %3) #5 align 2 {
  %5 = alloca ptr, align 8
  %6 = alloca float, align 4
  %7 = alloca ptr, align 8
  %8 = alloca ptr, align 8
  %9 = alloca float, align 4
  %10 = alloca float, align 4
  %11 = alloca float, align 4
  %12 = alloca float, align 4
  %13 = alloca float, align 4
  %14 = alloca float, align 4
  store ptr %0, ptr %5, align 8, !tbaa !149
  store float %1, ptr %6, align 4, !tbaa !28
  store ptr %2, ptr %7, align 8, !tbaa !149
  store ptr %3, ptr %8, align 8, !tbaa !149
  call void @llvm.lifetime.start.p0(i64 4, ptr %9) #4
  %15 = load ptr, ptr %7, align 8, !tbaa !149
  %16 = call noundef ptr @_ZNK9btVector3cvPKfEv(ptr noundef nonnull align 4 dereferenceable(16) %15)
  %17 = getelementptr inbounds float, ptr %16, i64 0
  %18 = load float, ptr %17, align 4, !tbaa !28
  %19 = load ptr, ptr %8, align 8, !tbaa !149
  %20 = call noundef ptr @_ZNK9btVector3cvPKfEv(ptr noundef nonnull align 4 dereferenceable(16) %19)
  %21 = getelementptr inbounds float, ptr %20, i64 0
  %22 = load float, ptr %21, align 4, !tbaa !28
  %23 = fadd float %18, %22
  %24 = fmul float 2.000000e+00, %23
  store float %24, ptr %9, align 4, !tbaa !28
  call void @llvm.lifetime.start.p0(i64 4, ptr %10) #4
  %25 = load ptr, ptr %7, align 8, !tbaa !149
  %26 = call noundef ptr @_ZNK9btVector3cvPKfEv(ptr noundef nonnull align 4 dereferenceable(16) %25)
  %27 = getelementptr inbounds float, ptr %26, i64 1
  %28 = load float, ptr %27, align 4, !tbaa !28
  %29 = load ptr, ptr %8, align 8, !tbaa !149
  %30 = call noundef ptr @_ZNK9btVector3cvPKfEv(ptr noundef nonnull align 4 dereferenceable(16) %29)
  %31 = getelementptr inbounds float, ptr %30, i64 1
  %32 = load float, ptr %31, align 4, !tbaa !28
  %33 = fadd float %28, %32
  %34 = fmul float 2.000000e+00, %33
  store float %34, ptr %10, align 4, !tbaa !28
  call void @llvm.lifetime.start.p0(i64 4, ptr %11) #4
  %35 = load ptr, ptr %7, align 8, !tbaa !149
  %36 = call noundef ptr @_ZNK9btVector3cvPKfEv(ptr noundef nonnull align 4 dereferenceable(16) %35)
  %37 = getelementptr inbounds float, ptr %36, i64 2
  %38 = load float, ptr %37, align 4, !tbaa !28
  %39 = load ptr, ptr %8, align 8, !tbaa !149
  %40 = call noundef ptr @_ZNK9btVector3cvPKfEv(ptr noundef nonnull align 4 dereferenceable(16) %39)
  %41 = getelementptr inbounds float, ptr %40, i64 2
  %42 = load float, ptr %41, align 4, !tbaa !28
  %43 = fadd float %38, %42
  %44 = fmul float 2.000000e+00, %43
  store float %44, ptr %11, align 4, !tbaa !28
  %45 = load ptr, ptr %5, align 8, !tbaa !149
  call void @llvm.lifetime.start.p0(i64 4, ptr %12) #4
  %46 = load float, ptr %6, align 4, !tbaa !28
  %47 = fdiv float %46, 1.200000e+01
  %48 = load float, ptr %10, align 4, !tbaa !28
  %49 = load float, ptr %10, align 4, !tbaa !28
  %50 = load float, ptr %11, align 4, !tbaa !28
  %51 = load float, ptr %11, align 4, !tbaa !28
  %52 = fmul float %50, %51
  %53 = call float @llvm.fmuladd.f32(float %48, float %49, float %52)
  %54 = fmul float %47, %53
  store float %54, ptr %12, align 4, !tbaa !28
  call void @llvm.lifetime.start.p0(i64 4, ptr %13) #4
  %55 = load float, ptr %6, align 4, !tbaa !28
  %56 = fdiv float %55, 1.200000e+01
  %57 = load float, ptr %9, align 4, !tbaa !28
  %58 = load float, ptr %9, align 4, !tbaa !28
  %59 = load float, ptr %11, align 4, !tbaa !28
  %60 = load float, ptr %11, align 4, !tbaa !28
  %61 = fmul float %59, %60
  %62 = call float @llvm.fmuladd.f32(float %57, float %58, float %61)
  %63 = fmul float %56, %62
  store float %63, ptr %13, align 4, !tbaa !28
  call void @llvm.lifetime.start.p0(i64 4, ptr %14) #4
  %64 = load float, ptr %6, align 4, !tbaa !28
  %65 = fdiv float %64, 1.200000e+01
  %66 = load float, ptr %9, align 4, !tbaa !28
  %67 = load float, ptr %9, align 4, !tbaa !28
  %68 = load float, ptr %10, align 4, !tbaa !28
  %69 = load float, ptr %10, align 4, !tbaa !28
  %70 = fmul float %68, %69
  %71 = call float @llvm.fmuladd.f32(float %66, float %67, float %70)
  %72 = fmul float %65, %71
  store float %72, ptr %14, align 4, !tbaa !28
  call void @_ZN9btVector38setValueERKfS1_S1_(ptr noundef nonnull align 4 dereferenceable(16) %45, ptr noundef nonnull align 4 dereferenceable(4) %12, ptr noundef nonnull align 4 dereferenceable(4) %13, ptr noundef nonnull align 4 dereferenceable(4) %14)
  call void @llvm.lifetime.end.p0(i64 4, ptr %14) #4
  call void @llvm.lifetime.end.p0(i64 4, ptr %13) #4
  call void @llvm.lifetime.end.p0(i64 4, ptr %12) #4
  call void @llvm.lifetime.end.p0(i64 4, ptr %11) #4
  call void @llvm.lifetime.end.p0(i64 4, ptr %10) #4
  call void @llvm.lifetime.end.p0(i64 4, ptr %9) #4
  ret void
}