; Function Attrs: mustprogress nofree norecurse nosync nounwind willreturn memory(argmem: readwrite) uwtable
define dso_local void @_ZN30btReducedDeformableBodyHelpers21calculateLocalInertiaER9btVector3fRKS0_S3_(ptr noundef nonnull writeonly align 4 captures(none) dereferenceable(16) initializes((0, 16)) %0, float noundef %1, ptr noundef nonnull readonly align 4 captures(none) dereferenceable(16) %2, ptr noundef nonnull readonly align 4 captures(none) dereferenceable(16) %3) local_unnamed_addr #10 align 2 {
  %5 = load float, ptr %2, align 4, !tbaa !81
  %6 = load float, ptr %3, align 4, !tbaa !81
  %7 = fadd float %5, %6
  %8 = fmul float %7, 2.000000e+00
  %9 = getelementptr inbounds nuw i8, ptr %2, i64 4
  %10 = load float, ptr %9, align 4, !tbaa !81
  %11 = getelementptr inbounds nuw i8, ptr %3, i64 4
  %12 = load float, ptr %11, align 4, !tbaa !81
  %13 = fadd float %10, %12
  %14 = fmul float %13, 2.000000e+00
  %15 = getelementptr inbounds nuw i8, ptr %2, i64 8
  %16 = load float, ptr %15, align 4, !tbaa !81
  %17 = getelementptr inbounds nuw i8, ptr %3, i64 8
  %18 = load float, ptr %17, align 4, !tbaa !81
  %19 = fadd float %16, %18
  %20 = fmul float %19, 2.000000e+00
  %21 = fdiv float %1, 1.200000e+01
  %22 = fmul float %20, %20
  %23 = tail call float @llvm.fmuladd.f32(float %14, float %14, float %22)
  %24 = fmul float %21, %23
  %25 = tail call float @llvm.fmuladd.f32(float %8, float %8, float %22)
  %26 = fmul float %21, %25
  %27 = fmul float %14, %14
  %28 = tail call float @llvm.fmuladd.f32(float %8, float %8, float %27)
  %29 = fmul float %21, %28
  store float %24, ptr %0, align 4, !tbaa !81
  %30 = getelementptr inbounds nuw i8, ptr %0, i64 4
  store float %26, ptr %30, align 4, !tbaa !81
  %31 = getelementptr inbounds nuw i8, ptr %0, i64 8
  store float %29, ptr %31, align 4, !tbaa !81
  %32 = getelementptr inbounds nuw i8, ptr %0, i64 12
  store float 0.000000e+00, ptr %32, align 4, !tbaa !81
  ret void
}